target datalayout = "e-m:e-p270:32:32-p271:32:32-p272:64:64-i64:64-i128:128-f80:128-n8:16:32:64-S128"
target triple = "x86_64-pc-linux-gnu"

%struct.H264ChromaContext = type { [4 x ptr], [4 x ptr] }

; Function Attrs: cold nounwind optsize uwtable
define void @ff_h264chroma_init(ptr noundef %0, i32 noundef %1) #0 {
  %3 = alloca ptr, align 8
  %4 = alloca i32, align 4
  store ptr %0, ptr %3, align 8, !tbaa !4
  store i32 %1, ptr %4, align 4, !tbaa !9
  %5 = load i32, ptr %4, align 4, !tbaa !9
  %6 = icmp sgt i32 %5, 8
  br i1 %6, label %7, label %35

7:                                                ; preds = %2
  %8 = load i32, ptr %4, align 4, !tbaa !9
  %9 = icmp sle i32 %8, 16
  br i1 %9, label %10, label %35

10:                                               ; preds = %7
  %11 = load ptr, ptr %3, align 8, !tbaa !4
  %12 = getelementptr inbounds nuw %struct.H264ChromaContext, ptr %11, i32 0, i32 0
  %13 = getelementptr inbounds [4 x ptr], ptr %12, i64 0, i64 0
  store ptr @put_h264_chroma_mc8_16_c, ptr %13, align 8, !tbaa !11
  %14 = load ptr, ptr %3, align 8, !tbaa !4
  %15 = getelementptr inbounds nuw %struct.H264ChromaContext, ptr %14, i32 0, i32 0
  %16 = getelementptr inbounds [4 x ptr], ptr %15, i64 0, i64 1
  store ptr @put_h264_chroma_mc4_16_c, ptr %16, align 8, !tbaa !11
  %17 = load ptr, ptr %3, align 8, !tbaa !4
  %18 = getelementptr inbounds nuw %struct.H264ChromaContext, ptr %17, i32 0, i32 0
  %19 = getelementptr inbounds [4 x ptr], ptr %18, i64 0, i64 2
  store ptr @put_h264_chroma_mc2_16_c, ptr %19, align 8, !tbaa !11
  %20 = load ptr, ptr %3, align 8, !tbaa !4
  %21 = getelementptr inbounds nuw %struct.H264ChromaContext, ptr %20, i32 0, i32 0
  %22 = getelementptr inbounds [4 x ptr], ptr %21, i64 0, i64 3
  store ptr @put_h264_chroma_mc1_16_c, ptr %22, align 8, !tbaa !11
  %23 = load ptr, ptr %3, align 8, !tbaa !4
  %24 = getelementptr inbounds nuw %struct.H264ChromaContext, ptr %23, i32 0, i32 1
  %25 = getelementptr inbounds [4 x ptr], ptr %24, i64 0, i64 0
  store ptr @avg_h264_chroma_mc8_16_c, ptr %25, align 8, !tbaa !11
  %26 = load ptr, ptr %3, align 8, !tbaa !4
  %27 = getelementptr inbounds nuw %struct.H264ChromaContext, ptr %26, i32 0, i32 1
  %28 = getelementptr inbounds [4 x ptr], ptr %27, i64 0, i64 1
  store ptr @avg_h264_chroma_mc4_16_c, ptr %28, align 8, !tbaa !11
  %29 = load ptr, ptr %3, align 8, !tbaa !4
  %30 = getelementptr inbounds nuw %struct.H264ChromaContext, ptr %29, i32 0, i32 1
  %31 = getelementptr inbounds [4 x ptr], ptr %30, i64 0, i64 2
  store ptr @avg_h264_chroma_mc2_16_c, ptr %31, align 8, !tbaa !11
  %32 = load ptr, ptr %3, align 8, !tbaa !4
  %33 = getelementptr inbounds nuw %struct.H264ChromaContext, ptr %32, i32 0, i32 1
  %34 = getelementptr inbounds [4 x ptr], ptr %33, i64 0, i64 3
  store ptr @avg_h264_chroma_mc1_16_c, ptr %34, align 8, !tbaa !11
  br label %60

35:                                               ; preds = %7, %2
  %36 = load ptr, ptr %3, align 8, !tbaa !4
  %37 = getelementptr inbounds nuw %struct.H264ChromaContext, ptr %36, i32 0, i32 0
  %38 = getelementptr inbounds [4 x ptr], ptr %37, i64 0, i64 0
  store ptr @put_h264_chroma_mc8_8_c, ptr %38, align 8, !tbaa !11
  %39 = load ptr, ptr %3, align 8, !tbaa !4
  %40 = getelementptr inbounds nuw %struct.H264ChromaContext, ptr %39, i32 0, i32 0
  %41 = getelementptr inbounds [4 x ptr], ptr %40, i64 0, i64 1
  store ptr @put_h264_chroma_mc4_8_c, ptr %41, align 8, !tbaa !11
  %42 = load ptr, ptr %3, align 8, !tbaa !4
  %43 = getelementptr inbounds nuw %struct.H264ChromaContext, ptr %42, i32 0, i32 0
  %44 = getelementptr inbounds [4 x ptr], ptr %43, i64 0, i64 2
  store ptr @put_h264_chroma_mc2_8_c, ptr %44, align 8, !tbaa !11
  %45 = load ptr, ptr %3, align 8, !tbaa !4
  %46 = getelementptr inbounds nuw %struct.H264ChromaContext, ptr %45, i32 0, i32 0
  %47 = getelementptr inbounds [4 x ptr], ptr %46, i64 0, i64 3
  store ptr @put_h264_chroma_mc1_8_c, ptr %47, align 8, !tbaa !11
  %48 = load ptr, ptr %3, align 8, !tbaa !4
  %49 = getelementptr inbounds nuw %struct.H264ChromaContext, ptr %48, i32 0, i32 1
  %50 = getelementptr inbounds [4 x ptr], ptr %49, i64 0, i64 0
  store ptr @avg_h264_chroma_mc8_8_c, ptr %50, align 8, !tbaa !11
  %51 = load ptr, ptr %3, align 8, !tbaa !4
  %52 = getelementptr inbounds nuw %struct.H264ChromaContext, ptr %51, i32 0, i32 1
  %53 = getelementptr inbounds [4 x ptr], ptr %52, i64 0, i64 1
  store ptr @avg_h264_chroma_mc4_8_c, ptr %53, align 8, !tbaa !11
  %54 = load ptr, ptr %3, align 8, !tbaa !4
  %55 = getelementptr inbounds nuw %struct.H264ChromaContext, ptr %54, i32 0, i32 1
  %56 = getelementptr inbounds [4 x ptr], ptr %55, i64 0, i64 2
  store ptr @avg_h264_chroma_mc2_8_c, ptr %56, align 8, !tbaa !11
  %57 = load ptr, ptr %3, align 8, !tbaa !4
  %58 = getelementptr inbounds nuw %struct.H264ChromaContext, ptr %57, i32 0, i32 1
  %59 = getelementptr inbounds [4 x ptr], ptr %58, i64 0, i64 3
  store ptr @avg_h264_chroma_mc1_8_c, ptr %59, align 8, !tbaa !11
  br label %60

60:                                               ; preds = %35, %10
  ret void
}