; Function Attrs: cold mustprogress nofree norecurse nosync nounwind optsize willreturn memory(argmem: write) uwtable
define void @ff_h264chroma_init(ptr noundef writeonly captures(none) initializes((0, 64)) %0, i32 noundef %1) local_unnamed_addr #0 {
  %3 = add i32 %1, -9
  %or.cond = icmp ult i32 %3, 8
  br i1 %or.cond, label %5, label %4

4:                                                ; preds = %2
  br label %5

5:                                                ; preds = %2, %4
  %put_h264_chroma_mc8_8_c.sink = phi ptr [ @put_h264_chroma_mc8_8_c, %4 ], [ @put_h264_chroma_mc8_16_c, %2 ]
  %put_h264_chroma_mc4_8_c.sink = phi ptr [ @put_h264_chroma_mc4_8_c, %4 ], [ @put_h264_chroma_mc4_16_c, %2 ]
  %put_h264_chroma_mc2_8_c.sink = phi ptr [ @put_h264_chroma_mc2_8_c, %4 ], [ @put_h264_chroma_mc2_16_c, %2 ]
  %put_h264_chroma_mc1_8_c.sink = phi ptr [ @put_h264_chroma_mc1_8_c, %4 ], [ @put_h264_chroma_mc1_16_c, %2 ]
  %avg_h264_chroma_mc8_8_c.sink = phi ptr [ @avg_h264_chroma_mc8_8_c, %4 ], [ @avg_h264_chroma_mc8_16_c, %2 ]
  %avg_h264_chroma_mc4_8_c.sink = phi ptr [ @avg_h264_chroma_mc4_8_c, %4 ], [ @avg_h264_chroma_mc4_16_c, %2 ]
  %avg_h264_chroma_mc2_8_c.sink = phi ptr [ @avg_h264_chroma_mc2_8_c, %4 ], [ @avg_h264_chroma_mc2_16_c, %2 ]
  %avg_h264_chroma_mc1_8_c.sink = phi ptr [ @avg_h264_chroma_mc1_8_c, %4 ], [ @avg_h264_chroma_mc1_16_c, %2 ]
  store ptr %put_h264_chroma_mc8_8_c.sink, ptr %0, align 8, !tbaa !4
  %6 = getelementptr inbounds nuw i8, ptr %0, i64 8
  store ptr %put_h264_chroma_mc4_8_c.sink, ptr %6, align 8, !tbaa !4
  %7 = getelementptr inbounds nuw i8, ptr %0, i64 16
  store ptr %put_h264_chroma_mc2_8_c.sink, ptr %7, align 8, !tbaa !4
  %8 = getelementptr inbounds nuw i8, ptr %0, i64 24
  store ptr %put_h264_chroma_mc1_8_c.sink, ptr %8, align 8, !tbaa !4
  %9 = getelementptr inbounds nuw i8, ptr %0, i64 32
  store ptr %avg_h264_chroma_mc8_8_c.sink, ptr %9, align 8, !tbaa !4
  %10 = getelementptr inbounds nuw i8, ptr %0, i64 40
  store ptr %avg_h264_chroma_mc4_8_c.sink, ptr %10, align 8, !tbaa !4
  %11 = getelementptr inbounds nuw i8, ptr %0, i64 48
  store ptr %avg_h264_chroma_mc2_8_c.sink, ptr %11, align 8, !tbaa !4
  %12 = getelementptr inbounds nuw i8, ptr %0, i64 56
  store ptr %avg_h264_chroma_mc1_8_c.sink, ptr %12, align 8, !tbaa !4
  ret void
}